; Function Attrs: mustprogress uwtable
define hidden void @_ZN11upolynomial7manager22compose_2kn_p_x_div_2kEjP3mpzj(ptr noundef nonnull align 8 dereferenceable(312) %0, i32 noundef %1, ptr noundef %2, i32 noundef %3) local_unnamed_addr #3 align 2 {
  %5 = icmp ult i32 %1, 2
  br i1 %5, label %.loopexit, label %6

6:                                                ; preds = %4
  %7 = mul i32 %3, %1
  %8 = getelementptr inbounds nuw i8, ptr %0, i64 8
  %9 = getelementptr inbounds nuw i8, ptr %0, i64 16
  %wide.trip.count = zext i32 %1 to i64
  br label %10

10:                                               ; preds = %6, %_ZN13mpzzp_manager5mul2kER3mpzj.exit
  %indvars.iv = phi i64 [ 0, %6 ], [ %indvars.iv.next, %_ZN13mpzzp_manager5mul2kER3mpzj.exit ]
  %.01315 = phi i32 [ %7, %6 ], [ %11, %_ZN13mpzzp_manager5mul2kER3mpzj.exit ]
  %11 = sub i32 %.01315, %3
  %12 = getelementptr inbounds nuw %class.mpz, ptr %2, i64 %indvars.iv
  %13 = load i32, ptr %12, align 8, !tbaa !8
  %14 = icmp eq i32 %13, 0
  br i1 %14, label %_ZN13mpzzp_manager5mul2kER3mpzj.exit, label %15

15:                                               ; preds = %10
  %16 = load ptr, ptr %8, align 8, !tbaa !33
  tail call void @_ZN11mpz_managerILb0EE5mul2kER3mpzj(ptr noundef nonnull align 8 dereferenceable(600) %16, ptr noundef nonnull align 8 dereferenceable(16) %12, i32 noundef %11)
  %17 = load i8, ptr %9, align 8, !tbaa !12, !range !16, !noundef !17
  %18 = trunc nuw i8 %17 to i1
  br i1 %18, label %_ZN13mpzzp_manager5mul2kER3mpzj.exit, label %19

19:                                               ; preds = %15
  tail call void @_ZN13mpzzp_manager16p_normalize_coreER3mpz(ptr noundef nonnull align 8 dereferenceable(136) %8, ptr noundef nonnull align 8 dereferenceable(16) %12)
  br label %_ZN13mpzzp_manager5mul2kER3mpzj.exit

_ZN13mpzzp_manager5mul2kER3mpzj.exit:             ; preds = %19, %15, %10
  %indvars.iv.next = add nuw nsw i64 %indvars.iv, 1
  %exitcond.not = icmp eq i64 %indvars.iv.next, %wide.trip.count
  br i1 %exitcond.not, label %.loopexit, label %10, !llvm.loop !167

.loopexit:                                        ; preds = %_ZN13mpzzp_manager5mul2kER3mpzj.exit, %4
  ret void
}